target datalayout = "e-m:e-p270:32:32-p271:32:32-p272:64:64-i64:64-i128:128-f80:128-n8:16:32:64-S128"
target triple = "x86_64-pc-linux-gnu"

%struct._zval_struct = type { %union._zend_value, %union.anon, %union.anon.2 }
%union._zend_value = type { i64 }
%union.anon = type { i32 }
%union.anon.2 = type { i32 }
%struct.anon.0 = type { i8, i8, %union.anon.1 }
%union.anon.1 = type { i16 }

; Function Attrs: alwaysinline nounwind uwtable
define internal zeroext i8 @zval_get_type(ptr noundef %0) #5 {
  %2 = alloca ptr, align 8
  store ptr %0, ptr %2, align 8, !tbaa !13
  %3 = load ptr, ptr %2, align 8, !tbaa !13
  %4 = getelementptr inbounds nuw %struct._zval_struct, ptr %3, i32 0, i32 1
  %5 = getelementptr inbounds nuw %struct.anon.0, ptr %4, i32 0, i32 0
  %6 = load i8, ptr %5, align 8, !tbaa !17
  ret i8 %6
}

; Function Attrs: alwaysinline nounwind uwtable
define internal zeroext i1 @zend_parse_arg_bool_ex(ptr noundef %0, ptr noundef %1, ptr noundef %2, i1 noundef zeroext %3, i32 noundef %4, i1 noundef zeroext %5) #5 {
  %7 = alloca i1, align 1
  %8 = alloca ptr, align 8
  %9 = alloca ptr, align 8
  %10 = alloca ptr, align 8
  %11 = alloca i8, align 1
  %12 = alloca i32, align 4
  %13 = alloca i8, align 1
  store ptr %0, ptr %8, align 8, !tbaa !13
  store ptr %1, ptr %9, align 8, !tbaa !35
  store ptr %2, ptr %10, align 8, !tbaa !35
  %14 = zext i1 %3 to i8
  store i8 %14, ptr %11, align 1, !tbaa !20
  store i32 %4, ptr %12, align 4, !tbaa !4
  %15 = zext i1 %5 to i8
  store i8 %15, ptr %13, align 1, !tbaa !20
  %16 = load i8, ptr %11, align 1, !tbaa !20, !range !22, !noundef !23
  %17 = trunc i8 %16 to i1
  br i1 %17, label %18, label %20

18:                                               ; preds = %6
  %19 = load ptr, ptr %10, align 8, !tbaa !35
  store i8 0, ptr %19, align 1, !tbaa !20
  br label %20

20:                                               ; preds = %18, %6
  %21 = load ptr, ptr %8, align 8, !tbaa !13
  %22 = call zeroext i8 @zval_get_type(ptr noundef %21)
  %23 = zext i8 %22 to i32
  %24 = icmp eq i32 %23, 3
  %25 = xor i1 %24, true
  %26 = xor i1 %25, true
  %27 = zext i1 %26 to i32
  %28 = sext i32 %27 to i64
  %29 = call i64 @llvm.expect.i64(i64 %28, i64 1)
  %30 = icmp ne i64 %29, 0
  br i1 %30, label %31, label %33

31:                                               ; preds = %20
  %32 = load ptr, ptr %9, align 8, !tbaa !35
  store i8 1, ptr %32, align 1, !tbaa !20
  br label %72

33:                                               ; preds = %20
  %34 = load ptr, ptr %8, align 8, !tbaa !13
  %35 = call zeroext i8 @zval_get_type(ptr noundef %34)
  %36 = zext i8 %35 to i32
  %37 = icmp eq i32 %36, 2
  %38 = xor i1 %37, true
  %39 = xor i1 %38, true
  %40 = zext i1 %39 to i32
  %41 = sext i32 %40 to i64
  %42 = call i64 @llvm.expect.i64(i64 %41, i64 1)
  %43 = icmp ne i64 %42, 0
  br i1 %43, label %44, label %46

44:                                               ; preds = %33
  %45 = load ptr, ptr %9, align 8, !tbaa !35
  store i8 0, ptr %45, align 1, !tbaa !20
  br label %71

46:                                               ; preds = %33
  %47 = load i8, ptr %11, align 1, !tbaa !20, !range !22, !noundef !23
  %48 = trunc i8 %47 to i1
  br i1 %48, label %49, label %57

49:                                               ; preds = %46
  %50 = load ptr, ptr %8, align 8, !tbaa !13
  %51 = call zeroext i8 @zval_get_type(ptr noundef %50)
  %52 = zext i8 %51 to i32
  %53 = icmp eq i32 %52, 1
  br i1 %53, label %54, label %57

54:                                               ; preds = %49
  %55 = load ptr, ptr %10, align 8, !tbaa !35
  store i8 1, ptr %55, align 1, !tbaa !20
  %56 = load ptr, ptr %9, align 8, !tbaa !35
  store i8 0, ptr %56, align 1, !tbaa !20
  br label %70

57:                                               ; preds = %49, %46
  %58 = load i8, ptr %13, align 1, !tbaa !20, !range !22, !noundef !23
  %59 = trunc i8 %58 to i1
  br i1 %59, label %60, label %65

60:                                               ; preds = %57
  %61 = load ptr, ptr %8, align 8, !tbaa !13
  %62 = load ptr, ptr %9, align 8, !tbaa !35
  %63 = load i32, ptr %12, align 4, !tbaa !4
  %64 = call zeroext i1 @zend_flf_parse_arg_bool_slow(ptr noundef %61, ptr noundef %62, i32 noundef %63)
  store i1 %64, ptr %7, align 1
  br label %73

65:                                               ; preds = %57
  %66 = load ptr, ptr %8, align 8, !tbaa !13
  %67 = load ptr, ptr %9, align 8, !tbaa !35
  %68 = load i32, ptr %12, align 4, !tbaa !4
  %69 = call zeroext i1 @zend_parse_arg_bool_slow(ptr noundef %66, ptr noundef %67, i32 noundef %68)
  store i1 %69, ptr %7, align 1
  br label %73

70:                                               ; preds = %54
  br label %71

71:                                               ; preds = %70, %44
  br label %72

72:                                               ; preds = %71, %31
  store i1 true, ptr %7, align 1
  br label %73

73:                                               ; preds = %72, %65, %60
  %74 = load i1, ptr %7, align 1
  ret i1 %74
}

; Function Attrs: alwaysinline nounwind uwtable
define internal zeroext i1 @zend_parse_arg_array(ptr noundef %0, ptr noundef %1, i1 noundef zeroext %2, i1 noundef zeroext %3) #5 {
  %5 = alloca i1, align 1
  %6 = alloca ptr, align 8
  %7 = alloca ptr, align 8
  %8 = alloca i8, align 1
  %9 = alloca i8, align 1
  store ptr %0, ptr %6, align 8, !tbaa !13
  store ptr %1, ptr %7, align 8, !tbaa !31
  %10 = zext i1 %2 to i8
  store i8 %10, ptr %8, align 1, !tbaa !20
  %11 = zext i1 %3 to i8
  store i8 %11, ptr %9, align 1, !tbaa !20
  %12 = load ptr, ptr %6, align 8, !tbaa !13
  %13 = call zeroext i8 @zval_get_type(ptr noundef %12)
  %14 = zext i8 %13 to i32
  %15 = icmp eq i32 %14, 7
  %16 = xor i1 %15, true
  %17 = xor i1 %16, true
  %18 = zext i1 %17 to i32
  %19 = sext i32 %18 to i64
  %20 = call i64 @llvm.expect.i64(i64 %19, i64 1)
  %21 = icmp ne i64 %20, 0
  br i1 %21, label %36, label %22

22:                                               ; preds = %4
  %23 = load i8, ptr %9, align 1, !tbaa !20, !range !22, !noundef !23
  %24 = trunc i8 %23 to i1
  br i1 %24, label %25, label %39

25:                                               ; preds = %22
  %26 = load ptr, ptr %6, align 8, !tbaa !13
  %27 = call zeroext i8 @zval_get_type(ptr noundef %26)
  %28 = zext i8 %27 to i32
  %29 = icmp eq i32 %28, 8
  %30 = xor i1 %29, true
  %31 = xor i1 %30, true
  %32 = zext i1 %31 to i32
  %33 = sext i32 %32 to i64
  %34 = call i64 @llvm.expect.i64(i64 %33, i64 1)
  %35 = icmp ne i64 %34, 0
  br i1 %35, label %36, label %39

36:                                               ; preds = %25, %4
  %37 = load ptr, ptr %6, align 8, !tbaa !13
  %38 = load ptr, ptr %7, align 8, !tbaa !31
  store ptr %37, ptr %38, align 8, !tbaa !13
  br label %57

39:                                               ; preds = %25, %22
  %40 = load i8, ptr %8, align 1, !tbaa !20, !range !22, !noundef !23
  %41 = trunc i8 %40 to i1
  br i1 %41, label %42, label %55

42:                                               ; preds = %39
  %43 = load ptr, ptr %6, align 8, !tbaa !13
  %44 = call zeroext i8 @zval_get_type(ptr noundef %43)
  %45 = zext i8 %44 to i32
  %46 = icmp eq i32 %45, 1
  %47 = xor i1 %46, true
  %48 = xor i1 %47, true
  %49 = zext i1 %48 to i32
  %50 = sext i32 %49 to i64
  %51 = call i64 @llvm.expect.i64(i64 %50, i64 1)
  %52 = icmp ne i64 %51, 0
  br i1 %52, label %53, label %55

53:                                               ; preds = %42
  %54 = load ptr, ptr %7, align 8, !tbaa !31
  store ptr null, ptr %54, align 8, !tbaa !13
  br label %56

55:                                               ; preds = %42, %39
  store i1 false, ptr %5, align 1
  br label %58

56:                                               ; preds = %53
  br label %57

57:                                               ; preds = %56, %36
  store i1 true, ptr %5, align 1
  br label %58

58:                                               ; preds = %57, %55
  %59 = load i1, ptr %5, align 1
  ret i1 %59
}

; Function Attrs: nounwind uwtable
define hidden void @zflf_in_array_3(ptr noundef %0, ptr noundef %1, ptr noundef %2, ptr noundef %3) #0 {
  %5 = alloca ptr, align 8
  %6 = alloca ptr, align 8
  %7 = alloca ptr, align 8
  %8 = alloca ptr, align 8
  %9 = alloca ptr, align 8
  %10 = alloca ptr, align 8
  %11 = alloca i8, align 1
  store ptr %0, ptr %5, align 8, !tbaa !13
  store ptr %1, ptr %6, align 8, !tbaa !13
  store ptr %2, ptr %7, align 8, !tbaa !13
  store ptr %3, ptr %8, align 8, !tbaa !13
  call void @llvm.lifetime.start.p0(i64 8, ptr %9) #17
  call void @llvm.lifetime.start.p0(i64 8, ptr %10) #17
  call void @llvm.lifetime.start.p0(i64 1, ptr %11) #17
  %12 = load ptr, ptr %6, align 8, !tbaa !13
  store ptr %12, ptr %9, align 8, !tbaa !13
  %13 = load ptr, ptr %7, align 8, !tbaa !13
  %14 = call zeroext i1 @zend_parse_arg_array(ptr noundef %13, ptr noundef %10, i1 noundef zeroext false, i1 noundef zeroext false)
  br i1 %14, label %17, label %15

15:                                               ; preds = %4
  %16 = load ptr, ptr %7, align 8, !tbaa !13
  call void @zend_wrong_parameter_type_error(i32 noundef 2, i32 noundef 6, ptr noundef %16)
  br label %28

17:                                               ; preds = %4
  %18 = load ptr, ptr %8, align 8, !tbaa !13
  %19 = call zeroext i1 @zend_parse_arg_bool_ex(ptr noundef %18, ptr noundef %11, ptr noundef null, i1 noundef zeroext false, i32 noundef 3, i1 noundef zeroext true)
  br i1 %19, label %22, label %20

20:                                               ; preds = %17
  %21 = load ptr, ptr %8, align 8, !tbaa !13
  call void @zend_wrong_parameter_type_error(i32 noundef 3, i32 noundef 2, ptr noundef %21)
  br label %28

22:                                               ; preds = %17
  %23 = load ptr, ptr %5, align 8, !tbaa !13
  %24 = load ptr, ptr %9, align 8, !tbaa !13
  %25 = load ptr, ptr %10, align 8, !tbaa !13
  %26 = load i8, ptr %11, align 1, !tbaa !20, !range !22, !noundef !23
  %27 = trunc i8 %26 to i1
  call void @_php_search_array(ptr noundef %23, ptr noundef %24, ptr noundef %25, i1 noundef zeroext %27, i32 noundef 0)
  br label %28

28:                                               ; preds = %22, %20, %15
  call void @llvm.lifetime.end.p0(i64 1, ptr %11) #17
  call void @llvm.lifetime.end.p0(i64 8, ptr %10) #17
  call void @llvm.lifetime.end.p0(i64 8, ptr %9) #17
  ret void
}