; Function Attrs: nounwind uwtable
define hidden void @zflf_in_array_3(ptr noundef writeonly captures(none) %0, ptr noundef %1, ptr noundef %2, ptr noundef %3) local_unnamed_addr #2 {
  %5 = alloca i8, align 1
  call void @llvm.lifetime.start.p0(i64 1, ptr nonnull %5) #21
  %6 = getelementptr inbounds nuw i8, ptr %2, i64 8
  %7 = load i8, ptr %6, align 8, !tbaa !8
  %8 = icmp eq i8 %7, 7
  br i1 %8, label %9, label %zend_parse_arg_array.exit, !prof !10

zend_parse_arg_array.exit:                        ; preds = %4
  tail call void @zend_wrong_parameter_type_error(i32 noundef 2, i32 noundef 6, ptr noundef nonnull %2) #21
  br label %17

9:                                                ; preds = %4
  %10 = getelementptr inbounds nuw i8, ptr %3, i64 8
  %11 = load i8, ptr %10, align 8, !tbaa !8
  switch i8 %11, label %zend_parse_arg_bool_ex.exit [
    i8 3, label %zend_parse_arg_bool_ex.exit.thread
    i8 2, label %zend_parse_arg_bool_ex.exit.thread.fold.split
  ], !prof !111

zend_parse_arg_bool_ex.exit.thread.fold.split:    ; preds = %9
  br label %zend_parse_arg_bool_ex.exit.thread

zend_parse_arg_bool_ex.exit.thread:               ; preds = %9, %zend_parse_arg_bool_ex.exit.thread.fold.split
  %storemerge.i = phi i8 [ 1, %9 ], [ 0, %zend_parse_arg_bool_ex.exit.thread.fold.split ]
  store i8 %storemerge.i, ptr %5, align 1, !tbaa !110
  br label %14

zend_parse_arg_bool_ex.exit:                      ; preds = %9
  %12 = call zeroext i1 @zend_flf_parse_arg_bool_slow(ptr noundef nonnull %3, ptr noundef nonnull %5, i32 noundef 3) #21
  br i1 %12, label %zend_parse_arg_bool_ex.exit._crit_edge, label %13

zend_parse_arg_bool_ex.exit._crit_edge:           ; preds = %zend_parse_arg_bool_ex.exit
  %.pre = load i8, ptr %5, align 1, !tbaa !110, !range !113
  br label %14

13:                                               ; preds = %zend_parse_arg_bool_ex.exit
  call void @zend_wrong_parameter_type_error(i32 noundef 3, i32 noundef 2, ptr noundef nonnull %3) #21
  br label %17

14:                                               ; preds = %zend_parse_arg_bool_ex.exit._crit_edge, %zend_parse_arg_bool_ex.exit.thread
  %15 = phi i8 [ %.pre, %zend_parse_arg_bool_ex.exit._crit_edge ], [ %storemerge.i, %zend_parse_arg_bool_ex.exit.thread ]
  %16 = trunc nuw i8 %15 to i1
  call fastcc void @_php_search_array(ptr noundef %0, ptr noundef %1, ptr noundef nonnull %2, i1 noundef zeroext %16, i32 noundef 0)
  br label %17

17:                                               ; preds = %14, %13, %zend_parse_arg_array.exit
  call void @llvm.lifetime.end.p0(i64 1, ptr nonnull %5) #21
  ret void
}